; Function Attrs: nounwind uwtable
define internal ptr @createBoolObject(ptr noundef readonly captures(none) %0, i32 noundef %1) #0 {
  %3 = load ptr, ptr getelementptr inbounds nuw (i8, ptr @hiredisAllocFns, i64 8), align 8, !tbaa !59
  %4 = tail call ptr %3(i64 noundef 1, i64 noundef 64) #13
  %5 = icmp eq ptr %4, null
  br i1 %5, label %createReplyObject.exit.thread, label %6

6:                                                ; preds = %2
  store i32 8, ptr %4, align 8, !tbaa !4
  %7 = icmp ne i32 %1, 0
  %8 = zext i1 %7 to i64
  %9 = getelementptr inbounds nuw i8, ptr %4, i64 8
  store i64 %8, ptr %9, align 8, !tbaa !83
  %10 = getelementptr inbounds nuw i8, ptr %0, i64 32
  %11 = load ptr, ptr %10, align 8, !tbaa !80
  %.not = icmp eq ptr %11, null
  br i1 %.not, label %createReplyObject.exit.thread, label %12

12:                                               ; preds = %6
  %13 = getelementptr inbounds nuw i8, ptr %11, i64 24
  %14 = load ptr, ptr %13, align 8, !tbaa !81
  %15 = getelementptr inbounds nuw i8, ptr %14, i64 56
  %16 = load ptr, ptr %15, align 8, !tbaa !15
  %17 = getelementptr inbounds nuw i8, ptr %0, i64 16
  %18 = load i32, ptr %17, align 8, !tbaa !82
  %19 = sext i32 %18 to i64
  %20 = getelementptr inbounds ptr, ptr %16, i64 %19
  store ptr %4, ptr %20, align 8, !tbaa !17
  br label %createReplyObject.exit.thread

createReplyObject.exit.thread:                    ; preds = %2, %6, %12
  ret ptr %4
}